target datalayout = "e-m:e-p270:32:32-p271:32:32-p272:64:64-i64:64-i128:128-f80:128-n8:16:32:64-S128"
target triple = "x86_64-pc-linux-gnu"

%struct._psqlSettings = type { ptr, i32, ptr, i8, ptr, ptr, %struct.printQueryOpt, ptr, ptr, ptr, i8, i8, i32, i32, ptr, ptr, i8, [4 x ptr], i8, i32, ptr, i8, i32, ptr, ptr, i64, i64, i8, ptr, ptr, ptr, i8, i8, i8, i8, i8, i8, i8, i32, i32, i32, i32, i32, i32, i32, i32, ptr, ptr, ptr, i32, i8, i32 }
%struct.printQueryOpt = type { %struct.printTableOpt, ptr, ptr, ptr, i8, ptr, i32 }
%struct.printTableOpt = type { i32, i16, i32, i32, i16, i16, i32, i8, i8, i8, i8, i64, ptr, %struct.separator, %struct.separator, [2 x i8], i8, ptr, i32, i32, i32, i32, i32, i32 }
%struct.separator = type { ptr, i8 }
%struct.PQExpBufferData = type { ptr, i64, i64 }

@pset = external global %struct._psqlSettings, align 8
@.str.6 = private unnamed_addr constant [12 x i8] c"Description\00", align 1
@.str.26 = private unnamed_addr constant [6 x i8] c"Owner\00", align 1
@.str.28 = private unnamed_addr constant [5 x i8] c",\0A  \00", align 1
@.str.167 = private unnamed_addr constant [18 x i8] c"Access privileges\00", align 1
@.str.609 = private unnamed_addr constant [71 x i8] c"SELECT oid as \22%s\22,\0A  pg_catalog.pg_get_userbyid(lomowner) as \22%s\22,\0A  \00", align 1
@.str.610 = private unnamed_addr constant [3 x i8] c"ID\00", align 1
@.str.611 = private unnamed_addr constant [7 x i8] c"lomacl\00", align 1
@.str.612 = private unnamed_addr constant [111 x i8] c"pg_catalog.obj_description(oid, 'pg_largeobject') as \22%s\22\0AFROM pg_catalog.pg_largeobject_metadata\0AORDER BY oid\00", align 1
@.str.613 = private unnamed_addr constant [14 x i8] c"Large objects\00", align 1
@.str.916 = private unnamed_addr constant [110 x i8] c"CASE WHEN pg_catalog.array_length(%s, 1) = 0 THEN '%s' ELSE pg_catalog.array_to_string(%s, E'\\n') END AS \22%s\22\00", align 1
@.str.917 = private unnamed_addr constant [7 x i8] c"(none)\00", align 1

; Function Attrs: nounwind uwtable
define internal void @printACLColumn(ptr noundef %0, ptr noundef %1) #0 {
  %3 = alloca ptr, align 8
  %4 = alloca ptr, align 8
  store ptr %0, ptr %3, align 8
  store ptr %1, ptr %4, align 8
  %5 = load ptr, ptr %3, align 8
  %6 = load ptr, ptr %4, align 8
  %7 = load ptr, ptr %4, align 8
  call void (ptr, ptr, ...) @appendPQExpBuffer(ptr noundef %5, ptr noundef @.str.916, ptr noundef %6, ptr noundef @.str.917, ptr noundef %7, ptr noundef @.str.167)
  ret void
}

; Function Attrs: nounwind uwtable
define dso_local zeroext i1 @listLargeObjects(i1 noundef zeroext %0) #0 {
  %2 = alloca i1, align 1
  %3 = alloca i8, align 1
  %4 = alloca %struct.PQExpBufferData, align 8
  %5 = alloca ptr, align 8
  %6 = alloca %struct.printQueryOpt, align 8
  %7 = alloca i32, align 4
  %8 = zext i1 %0 to i8
  store i8 %8, ptr %3, align 1
  call void @llvm.lifetime.start.p0(i64 24, ptr %4) #8
  call void @llvm.lifetime.start.p0(i64 8, ptr %5) #8
  call void @llvm.lifetime.start.p0(i64 168, ptr %6) #8
  call void @llvm.memcpy.p0.p0.i64(ptr align 8 %6, ptr align 8 getelementptr inbounds nuw (%struct._psqlSettings, ptr @pset, i32 0, i32 6), i64 168, i1 false)
  call void @initPQExpBuffer(ptr noundef %4)
  call void (ptr, ptr, ...) @printfPQExpBuffer(ptr noundef %4, ptr noundef @.str.609, ptr noundef @.str.610, ptr noundef @.str.26)
  %9 = load i8, ptr %3, align 1, !range !4, !noundef !5
  %10 = trunc i8 %9 to i1
  br i1 %10, label %11, label %12

11:                                               ; preds = %1
  call void @printACLColumn(ptr noundef %4, ptr noundef @.str.611)
  call void @appendPQExpBufferStr(ptr noundef %4, ptr noundef @.str.28)
  br label %12

12:                                               ; preds = %11, %1
  call void (ptr, ptr, ...) @appendPQExpBuffer(ptr noundef %4, ptr noundef @.str.612, ptr noundef @.str.6)
  %13 = getelementptr inbounds nuw %struct.PQExpBufferData, ptr %4, i32 0, i32 0
  %14 = load ptr, ptr %13, align 8
  %15 = call ptr @PSQLexec(ptr noundef %14)
  store ptr %15, ptr %5, align 8
  call void @termPQExpBuffer(ptr noundef %4)
  %16 = load ptr, ptr %5, align 8
  %17 = icmp ne ptr %16, null
  br i1 %17, label %19, label %18

18:                                               ; preds = %12
  store i1 false, ptr %2, align 1
  store i32 1, ptr %7, align 4
  br label %26

19:                                               ; preds = %12
  %20 = getelementptr inbounds nuw %struct.printQueryOpt, ptr %6, i32 0, i32 2
  store ptr @.str.613, ptr %20, align 8
  %21 = getelementptr inbounds nuw %struct.printQueryOpt, ptr %6, i32 0, i32 4
  store i8 1, ptr %21, align 8
  %22 = load ptr, ptr %5, align 8
  %23 = load ptr, ptr getelementptr inbounds nuw (%struct._psqlSettings, ptr @pset, i32 0, i32 2), align 8
  %24 = load ptr, ptr getelementptr inbounds nuw (%struct._psqlSettings, ptr @pset, i32 0, i32 28), align 8
  call void @printQuery(ptr noundef %22, ptr noundef %6, ptr noundef %23, i1 noundef zeroext false, ptr noundef %24)
  %25 = load ptr, ptr %5, align 8
  call void @PQclear(ptr noundef %25)
  store i1 true, ptr %2, align 1
  store i32 1, ptr %7, align 4
  br label %26

26:                                               ; preds = %19, %18
  call void @llvm.lifetime.end.p0(i64 168, ptr %6) #8
  call void @llvm.lifetime.end.p0(i64 8, ptr %5) #8
  call void @llvm.lifetime.end.p0(i64 24, ptr %4) #8
  %27 = load i1, ptr %2, align 1
  ret i1 %27
}