; Function Attrs: nounwind uwtable
define dso_local noundef zeroext i1 @listLargeObjects(i1 noundef zeroext %0) local_unnamed_addr #0 {
  %2 = alloca %struct.PQExpBufferData, align 8
  %3 = alloca %struct.printQueryOpt, align 8
  call void @llvm.lifetime.start.p0(i64 24, ptr nonnull %2) #8
  call void @llvm.lifetime.start.p0(i64 168, ptr nonnull %3) #8
  call void @llvm.memcpy.p0.p0.i64(ptr noundef nonnull align 8 dereferenceable(168) %3, ptr noundef nonnull align 8 dereferenceable(168) getelementptr inbounds nuw (i8, ptr @pset, i64 48), i64 168, i1 false)
  call void @initPQExpBuffer(ptr noundef nonnull %2) #8
  call void (ptr, ptr, ...) @printfPQExpBuffer(ptr noundef nonnull %2, ptr noundef nonnull @.str.609, ptr noundef nonnull @.str.610, ptr noundef nonnull @.str.26) #8
  br i1 %0, label %4, label %5

4:                                                ; preds = %1
  call void (ptr, ptr, ...) @appendPQExpBuffer(ptr noundef nonnull %2, ptr noundef nonnull @.str.916, ptr noundef nonnull @.str.611, ptr noundef nonnull @.str.917, ptr noundef nonnull @.str.611, ptr noundef nonnull @.str.167) #8
  call void @appendPQExpBufferStr(ptr noundef nonnull %2, ptr noundef nonnull @.str.28) #8
  br label %5

5:                                                ; preds = %4, %1
  call void (ptr, ptr, ...) @appendPQExpBuffer(ptr noundef nonnull %2, ptr noundef nonnull @.str.612, ptr noundef nonnull @.str.6) #8
  %6 = load ptr, ptr %2, align 8
  %7 = call ptr @PSQLexec(ptr noundef %6) #8
  call void @termPQExpBuffer(ptr noundef nonnull %2) #8
  %.not = icmp ne ptr %7, null
  br i1 %.not, label %8, label %13

8:                                                ; preds = %5
  %9 = getelementptr inbounds nuw i8, ptr %3, i64 128
  store ptr @.str.613, ptr %9, align 8
  %10 = getelementptr inbounds nuw i8, ptr %3, i64 144
  store i8 1, ptr %10, align 8
  %11 = load ptr, ptr getelementptr inbounds nuw (i8, ptr @pset, i64 16), align 8
  %12 = load ptr, ptr getelementptr inbounds nuw (i8, ptr @pset, i64 376), align 8
  call void @printQuery(ptr noundef nonnull %7, ptr noundef nonnull %3, ptr noundef %11, i1 noundef zeroext false, ptr noundef %12) #8
  call void @PQclear(ptr noundef nonnull %7) #8
  br label %13

13:                                               ; preds = %5, %8
  call void @llvm.lifetime.end.p0(i64 168, ptr nonnull %3) #8
  call void @llvm.lifetime.end.p0(i64 24, ptr nonnull %2) #8
  ret i1 %.not
}